target datalayout = "e-m:e-p270:32:32-p271:32:32-p272:64:64-i64:64-i128:128-f80:128-n8:16:32:64-S128"
target triple = "x86_64-pc-linux-gnu"

%struct.loopargs_st = type { ptr, ptr, ptr, ptr, ptr, ptr, ptr, [16 x i8], i64, i64, i64, [7 x ptr], [7 x ptr], [7 x ptr], [7 x ptr], [2 x ptr], [2 x ptr], [22 x ptr], [22 x ptr], [24 x ptr], [2 x ptr], [2 x ptr], [1 x ptr], [1 x ptr], [1 x ptr], ptr, ptr, [24 x i64], [5 x ptr], ptr, ptr, ptr, ptr, [111 x ptr], [111 x ptr], [111 x ptr], [111 x i64], [111 x i64], [111 x ptr], [111 x ptr], [111 x ptr], [111 x ptr], [111 x ptr], [111 x ptr], [111 x i64], [111 x i64], [111 x ptr] }

@bio_err = external global ptr, align 8
@testmode = internal global i32 0, align 4
@testnum = internal global i32 0, align 4
@testmoderesult = internal global i32 0, align 4
@run = internal global i32 0, align 4
@.str.468 = private unnamed_addr constant [32 x i8] c"SIG verify failure at count %d\0A\00", align 1

; Function Attrs: nounwind uwtable
define internal void @dofail() #0 {
  %1 = load ptr, ptr @bio_err, align 8, !tbaa !53
  call void @ERR_print_errors(ptr noundef %1)
  store i32 1, ptr @testmoderesult, align 4, !tbaa !4
  ret void
}

; Function Attrs: nounwind uwtable
define internal i32 @SIG_verify_loop(ptr noundef %0) #0 {
  %2 = alloca ptr, align 8
  %3 = alloca ptr, align 8
  %4 = alloca ptr, align 8
  %5 = alloca i64, align 8
  %6 = alloca ptr, align 8
  %7 = alloca [32 x i8], align 16
  %8 = alloca i64, align 8
  %9 = alloca i32, align 4
  %10 = alloca i32, align 4
  %11 = alloca i32, align 4
  store ptr %0, ptr %2, align 8, !tbaa !115
  call void @llvm.lifetime.start.p0(i64 8, ptr %3) #11
  %12 = load ptr, ptr %2, align 8, !tbaa !115
  %13 = load ptr, ptr %12, align 8, !tbaa !37
  store ptr %13, ptr %3, align 8, !tbaa !37
  call void @llvm.lifetime.start.p0(i64 8, ptr %4) #11
  %14 = load ptr, ptr %3, align 8, !tbaa !37
  %15 = getelementptr inbounds nuw %struct.loopargs_st, ptr %14, i32 0, i32 43
  %16 = load i32, ptr @testnum, align 4, !tbaa !4
  %17 = zext i32 %16 to i64
  %18 = getelementptr inbounds nuw [111 x ptr], ptr %15, i64 0, i64 %17
  %19 = load ptr, ptr %18, align 8, !tbaa !27
  store ptr %19, ptr %4, align 8, !tbaa !27
  call void @llvm.lifetime.start.p0(i64 8, ptr %5) #11
  %20 = load ptr, ptr %3, align 8, !tbaa !37
  %21 = getelementptr inbounds nuw %struct.loopargs_st, ptr %20, i32 0, i32 45
  %22 = load i32, ptr @testnum, align 4, !tbaa !4
  %23 = zext i32 %22 to i64
  %24 = getelementptr inbounds nuw [111 x i64], ptr %21, i64 0, i64 %23
  %25 = load i64, ptr %24, align 8, !tbaa !50
  store i64 %25, ptr %5, align 8, !tbaa !50
  call void @llvm.lifetime.start.p0(i64 8, ptr %6) #11
  %26 = load ptr, ptr %3, align 8, !tbaa !37
  %27 = getelementptr inbounds nuw %struct.loopargs_st, ptr %26, i32 0, i32 46
  %28 = load i32, ptr @testnum, align 4, !tbaa !4
  %29 = zext i32 %28 to i64
  %30 = getelementptr inbounds nuw [111 x ptr], ptr %27, i64 0, i64 %29
  %31 = load ptr, ptr %30, align 8, !tbaa !39
  store ptr %31, ptr %6, align 8, !tbaa !39
  call void @llvm.lifetime.start.p0(i64 32, ptr %7) #11
  call void @llvm.memset.p0.i64(ptr align 16 %7, i8 0, i64 32, i1 false)
  call void @llvm.lifetime.start.p0(i64 8, ptr %8) #11
  store i64 32, ptr %8, align 8, !tbaa !50
  call void @llvm.lifetime.start.p0(i64 4, ptr %9) #11
  store i32 0, ptr %9, align 4, !tbaa !4
  br label %32

32:                                               ; preds = %60, %1
  %33 = load volatile i32, ptr @run, align 4, !tbaa !4
  %34 = icmp ne i32 %33, 0
  br i1 %34, label %35, label %41

35:                                               ; preds = %32
  %36 = load i32, ptr %9, align 4, !tbaa !4
  %37 = load i32, ptr @testmode, align 4, !tbaa !4
  %38 = icmp ne i32 %37, 0
  %39 = select i1 %38, i32 1, i32 2147483647
  %40 = icmp slt i32 %36, %39
  br label %41

41:                                               ; preds = %35, %32
  %42 = phi i1 [ false, %32 ], [ %40, %35 ]
  br i1 %42, label %43, label %63

43:                                               ; preds = %41
  call void @llvm.lifetime.start.p0(i64 4, ptr %10) #11
  %44 = load ptr, ptr %4, align 8, !tbaa !27
  %45 = load ptr, ptr %6, align 8, !tbaa !39
  %46 = load i64, ptr %5, align 8, !tbaa !50
  %47 = getelementptr inbounds [32 x i8], ptr %7, i64 0, i64 0
  %48 = load i64, ptr %8, align 8, !tbaa !50
  %49 = call i32 @EVP_PKEY_verify(ptr noundef %44, ptr noundef %45, i64 noundef %46, ptr noundef %47, i64 noundef %48)
  store i32 %49, ptr %10, align 4, !tbaa !4
  %50 = load i32, ptr %10, align 4, !tbaa !4
  %51 = icmp sle i32 %50, 0
  br i1 %51, label %52, label %56

52:                                               ; preds = %43
  %53 = load ptr, ptr @bio_err, align 8, !tbaa !53
  %54 = load i32, ptr %9, align 4, !tbaa !4
  %55 = call i32 (ptr, ptr, ...) @BIO_printf(ptr noundef %53, ptr noundef @.str.468, i32 noundef %54)
  call void @dofail()
  store i32 -1, ptr %9, align 4, !tbaa !4
  store i32 2, ptr %11, align 4
  br label %57

56:                                               ; preds = %43
  store i32 0, ptr %11, align 4
  br label %57

57:                                               ; preds = %56, %52
  call void @llvm.lifetime.end.p0(i64 4, ptr %10) #11
  %58 = load i32, ptr %11, align 4
  switch i32 %58, label %65 [
    i32 0, label %59
    i32 2, label %63
  ]

59:                                               ; preds = %57
  br label %60

60:                                               ; preds = %59
  %61 = load i32, ptr %9, align 4, !tbaa !4
  %62 = add nsw i32 %61, 1
  store i32 %62, ptr %9, align 4, !tbaa !4
  br label %32, !llvm.loop !299

63:                                               ; preds = %57, %41
  %64 = load i32, ptr %9, align 4, !tbaa !4
  store i32 1, ptr %11, align 4
  call void @llvm.lifetime.end.p0(i64 4, ptr %9) #11
  call void @llvm.lifetime.end.p0(i64 8, ptr %8) #11
  call void @llvm.lifetime.end.p0(i64 32, ptr %7) #11
  call void @llvm.lifetime.end.p0(i64 8, ptr %6) #11
  call void @llvm.lifetime.end.p0(i64 8, ptr %5) #11
  call void @llvm.lifetime.end.p0(i64 8, ptr %4) #11
  call void @llvm.lifetime.end.p0(i64 8, ptr %3) #11
  ret i32 %64

65:                                               ; preds = %57
  unreachable
}