; Function Attrs: nounwind uwtable
define internal i32 @SIG_verify_loop(ptr noundef readonly captures(none) %0) #0 {
  %2 = alloca [32 x i8], align 16
  %3 = load ptr, ptr %0, align 8, !tbaa !189
  %4 = getelementptr inbounds nuw i8, ptr %3, i64 10112
  %5 = load i32, ptr @testnum, align 4, !tbaa !13
  %6 = zext i32 %5 to i64
  %7 = getelementptr inbounds nuw [111 x ptr], ptr %4, i64 0, i64 %6
  %8 = load ptr, ptr %7, align 8, !tbaa !15
  %9 = getelementptr inbounds nuw i8, ptr %3, i64 11888
  %10 = getelementptr inbounds nuw [111 x i64], ptr %9, i64 0, i64 %6
  %11 = load i64, ptr %10, align 8, !tbaa !28
  %12 = getelementptr inbounds nuw i8, ptr %3, i64 12776
  %13 = getelementptr inbounds nuw [111 x ptr], ptr %12, i64 0, i64 %6
  %14 = load ptr, ptr %13, align 8, !tbaa !23
  call void @llvm.lifetime.start.p0(i64 32, ptr nonnull %2) #14
  call void @llvm.memset.p0.i64(ptr noundef nonnull align 16 dereferenceable(32) %2, i8 0, i64 32, i1 false)
  %15 = load volatile i32, ptr @run, align 4, !tbaa !13
  %.not19 = icmp eq i32 %15, 0
  br i1 %.not19, label %.critedge, label %.lr.ph

.lr.ph:                                           ; preds = %1, %25
  %.01320 = phi i32 [ %26, %25 ], [ 0, %1 ]
  %.b = load i1, ptr @testmode, align 4
  %16 = select i1 %.b, i32 1, i32 2147483647
  %17 = icmp samesign ult i32 %.01320, %16
  br i1 %17, label %18, label %.critedge

18:                                               ; preds = %.lr.ph
  %19 = call i32 @EVP_PKEY_verify(ptr noundef %8, ptr noundef %14, i64 noundef %11, ptr noundef nonnull %2, i64 noundef 32) #14
  %20 = icmp slt i32 %19, 1
  br i1 %20, label %21, label %25

21:                                               ; preds = %18
  %22 = load ptr, ptr @bio_err, align 8, !tbaa !19
  %23 = call i32 (ptr, ptr, ...) @BIO_printf(ptr noundef %22, ptr noundef nonnull @.str.468, i32 noundef %.01320) #14
  %24 = load ptr, ptr @bio_err, align 8, !tbaa !19
  call void @ERR_print_errors(ptr noundef %24) #14
  store i1 true, ptr @testmoderesult, align 4
  br label %.critedge

25:                                               ; preds = %18
  %26 = add nuw nsw i32 %.01320, 1
  %27 = load volatile i32, ptr @run, align 4, !tbaa !13
  %.not = icmp eq i32 %27, 0
  br i1 %.not, label %.critedge, label %.lr.ph, !llvm.loop !236

.critedge:                                        ; preds = %.lr.ph, %25, %1, %21
  %.1 = phi i32 [ -1, %21 ], [ 0, %1 ], [ %.01320, %.lr.ph ], [ %26, %25 ]
  call void @llvm.lifetime.end.p0(i64 32, ptr nonnull %2) #14
  ret i32 %.1
}